; Function Attrs: mustprogress nofree norecurse nosync nounwind willreturn memory(argmem: readwrite) uwtable
define hidden void @timelib_isoweek_from_date(i64 noundef %0, i64 noundef %1, i64 noundef %2, ptr noundef writeonly captures(none) %3, ptr noundef captures(none) initializes((0, 8)) %4) local_unnamed_addr #1 {
  %6 = and i64 %0, 3
  %7 = icmp eq i64 %6, 0
  br i1 %7, label %8, label %13

8:                                                ; preds = %5
  %9 = srem i64 %0, 100
  %.not = icmp eq i64 %9, 0
  br i1 %.not, label %10, label %13

10:                                               ; preds = %8
  %11 = srem i64 %0, 400
  %12 = icmp eq i64 %11, 0
  br label %13

13:                                               ; preds = %8, %10, %5
  %14 = phi i1 [ false, %5 ], [ true, %8 ], [ %12, %10 ]
  %15 = add i64 %0, -1
  %16 = and i64 %15, 3
  %17 = icmp eq i64 %16, 0
  br i1 %17, label %18, label %23

18:                                               ; preds = %13
  %19 = srem i64 %15, 100
  %.not57 = icmp eq i64 %19, 0
  br i1 %.not57, label %20, label %23

20:                                               ; preds = %18
  %21 = srem i64 %15, 400
  %22 = icmp eq i64 %21, 0
  br label %23

23:                                               ; preds = %18, %20, %13
  %24 = phi i1 [ false, %13 ], [ true, %18 ], [ %22, %20 ]
  br i1 %7, label %25, label %timelib_day_of_year.exit

25:                                               ; preds = %23
  %26 = srem i64 %0, 100
  %.not.i = icmp ne i64 %26, 0
  %27 = srem i64 %0, 400
  %28 = icmp eq i64 %27, 0
  %or.cond.i = or i1 %.not.i, %28
  %spec.select91 = select i1 %or.cond.i, ptr @d_table_leap, ptr @d_table_common
  %.in.i79 = getelementptr inbounds [13 x i32], ptr %spec.select91, i64 0, i64 %1
  %29 = load i32, ptr %.in.i79, align 4, !tbaa !4
  %30 = trunc i64 %2 to i32
  %31 = add i32 %29, %30
  %32 = icmp sgt i64 %1, 2
  %or.cond80 = and i1 %32, %14
  %33 = zext i1 %or.cond80 to i32
  %spec.select81 = add i32 %31, %33
  %.not.i.i = icmp ne i64 %26, 0
  %34 = icmp eq i64 %27, 0
  %or.cond.i.i = or i1 %.not.i.i, %34
  %spec.select93 = select i1 %or.cond.i.i, ptr @m_table_leap, ptr @m_table_common
  br label %timelib_day_of_week.exit

timelib_day_of_year.exit:                         ; preds = %23
  %.pre75 = srem i64 %0, 400
  %.pre = srem i64 %0, 100
  %.in.i = getelementptr inbounds [13 x i32], ptr @d_table_common, i64 0, i64 %1
  %35 = load i32, ptr %.in.i, align 4, !tbaa !4
  %36 = trunc i64 %2 to i32
  %37 = add i32 %35, %36
  %38 = icmp sgt i64 %1, 2
  %or.cond = and i1 %38, %14
  %39 = zext i1 %or.cond to i32
  %spec.select = add i32 %37, %39
  br label %timelib_day_of_week.exit

timelib_day_of_week.exit:                         ; preds = %25, %timelib_day_of_year.exit
  %spec.select89 = phi i32 [ %spec.select, %timelib_day_of_year.exit ], [ %spec.select81, %25 ]
  %.pre-phi86 = phi i64 [ %.pre75, %timelib_day_of_year.exit ], [ %27, %25 ]
  %.pre-phi7483 = phi i64 [ %.pre, %timelib_day_of_year.exit ], [ %26, %25 ]
  %m_table_leap.pn.i.i = phi ptr [ @m_table_common, %timelib_day_of_year.exit ], [ %spec.select93, %25 ]
  %40 = icmp slt i64 %.pre-phi7483, 0
  %41 = select i1 %40, i64 100, i64 0
  %spec.select.i17.i.i = add nsw i64 %41, %.pre-phi7483
  %42 = icmp slt i64 %.pre-phi86, 0
  %43 = select i1 %42, i64 400, i64 0
  %spec.select.i.i.i = add nsw i64 %43, %.pre-phi86
  %.lhs.trunc.i.i = trunc nsw i64 %spec.select.i.i.i to i16
  %44 = udiv i16 %.lhs.trunc.i.i, 100
  %45 = shl nuw nsw i16 %44, 1
  %46 = zext nneg i16 %45 to i64
  %.in.i.i = getelementptr inbounds nuw i8, ptr %m_table_leap.pn.i.i, i64 4
  %47 = load i32, ptr %.in.i.i, align 4, !tbaa !4
  %48 = sext i32 %47 to i64
  %49 = lshr i64 %spec.select.i17.i.i, 2
  %50 = add nuw nsw i64 %49, %spec.select.i17.i.i
  %51 = add nuw nsw i64 %50, 7
  %52 = sub nuw nsw i64 %51, %46
  %53 = add nsw i64 %52, %48
  %54 = srem i64 %53, 7
  %55 = icmp slt i64 %54, 0
  %56 = select i1 %55, i64 7, i64 0
  %spec.select.i18.i.i = add nsw i64 %56, %54
  %57 = trunc nsw i64 %spec.select.i18.i.i to i32
  br i1 %7, label %58, label %60

58:                                               ; preds = %timelib_day_of_week.exit
  %.not.i.i67 = icmp ne i64 %.pre-phi7483, 0
  %59 = icmp eq i64 %.pre-phi86, 0
  %or.cond.i.i68 = or i1 %.not.i.i67, %59
  br i1 %or.cond.i.i68, label %timelib_day_of_week.exit69, label %60

60:                                               ; preds = %58, %timelib_day_of_week.exit
  br label %timelib_day_of_week.exit69

timelib_day_of_week.exit69:                       ; preds = %58, %60
  %m_table_leap.pn.i.i61 = phi ptr [ @m_table_common, %60 ], [ @m_table_leap, %58 ]
  %.in.i.i65 = getelementptr inbounds [13 x i32], ptr %m_table_leap.pn.i.i61, i64 0, i64 %1
  %61 = load i32, ptr %.in.i.i65, align 4, !tbaa !4
  %62 = sext i32 %61 to i64
  %reass.sub.i.i = add i64 %2, 6
  %63 = add i64 %reass.sub.i.i, %spec.select.i17.i.i
  %64 = add i64 %63, %49
  %65 = sub i64 %64, %46
  %66 = add i64 %65, %62
  %67 = srem i64 %66, 7
  %68 = icmp slt i64 %67, 0
  %69 = select i1 %68, i64 7, i64 0
  %spec.select.i18.i.i66 = add nsw i64 %69, %67
  %70 = trunc nsw i64 %spec.select.i18.i.i66 to i32
  %71 = icmp eq i64 %spec.select.i18.i.i66, 0
  %spec.store.select = select i1 %71, i32 7, i32 %70
  %72 = icmp eq i64 %spec.select.i18.i.i, 0
  %spec.store.select6 = select i1 %72, i32 7, i32 %57
  %73 = sub nsw i32 8, %spec.store.select6
  %74 = icmp sle i32 %spec.select89, %73
  %75 = icmp sgt i32 %spec.store.select6, 4
  %or.cond3 = and i1 %75, %74
  br i1 %or.cond3, label %76, label %81

76:                                               ; preds = %timelib_day_of_week.exit69
  store i64 %15, ptr %4, align 8, !tbaa !8
  %77 = icmp eq i32 %spec.store.select6, 5
  %78 = icmp eq i32 %spec.store.select6, 6
  %or.cond5 = and i1 %24, %78
  %or.cond59 = or i1 %77, %or.cond5
  br i1 %or.cond59, label %79, label %80

79:                                               ; preds = %76
  store i64 53, ptr %3, align 8, !tbaa !8
  br label %82

80:                                               ; preds = %76
  store i64 52, ptr %3, align 8, !tbaa !8
  br label %82

81:                                               ; preds = %timelib_day_of_week.exit69
  store i64 %0, ptr %4, align 8, !tbaa !8
  br label %82

82:                                               ; preds = %79, %80, %81
  %83 = load i64, ptr %4, align 8, !tbaa !8
  %84 = icmp eq i64 %83, %0
  br i1 %84, label %85, label %.critedge

85:                                               ; preds = %82
  %.neg71 = select i1 %14, i32 367, i32 365
  %86 = sub i32 %.neg71, %spec.select89
  %87 = sub nsw i32 4, %spec.store.select
  %.not58 = icmp slt i32 %86, %87
  br i1 %.not58, label %88, label %90

88:                                               ; preds = %85
  %89 = add i64 %0, 1
  store i64 %89, ptr %4, align 8, !tbaa !8
  br label %.critedge.sink.split

90:                                               ; preds = %85
  %reass.sub = add i32 %spec.select89, 6
  %91 = add i32 %reass.sub, %spec.store.select6
  %92 = sub i32 %91, %spec.store.select
  %93 = sdiv i32 %92, 7
  %94 = sext i32 %93 to i64
  %95 = sext i1 %75 to i64
  %spec.select60 = add nsw i64 %94, %95
  br label %.critedge.sink.split

.critedge.sink.split:                             ; preds = %90, %88
  %.sink = phi i64 [ 1, %88 ], [ %spec.select60, %90 ]
  store i64 %.sink, ptr %3, align 8, !tbaa !8
  br label %.critedge

.critedge:                                        ; preds = %.critedge.sink.split, %82
  ret void
}